target datalayout = "e-m:e-p270:32:32-p271:32:32-p272:64:64-i64:64-i128:128-f80:128-n8:16:32:64-S128"
target triple = "x86_64-pc-linux-gnu"

%struct.pxr_nc_1_0_Yxy = type { float, float, float }
%struct.NcYuvPrime = type { float, float, float }

; Function Attrs: nounwind uwtable
define { <2 x float>, float } @_NcYuv2Yxy(<2 x float> %0, float %1) #6 {
  %3 = alloca %struct.pxr_nc_1_0_Yxy, align 4
  %4 = alloca %struct.NcYuvPrime, align 4
  %5 = alloca { <2 x float>, float }, align 4
  %6 = alloca float, align 4
  %7 = alloca { <2 x float>, float }, align 8
  %8 = getelementptr inbounds nuw { <2 x float>, float }, ptr %5, i32 0, i32 0
  store <2 x float> %0, ptr %8, align 4
  %9 = getelementptr inbounds nuw { <2 x float>, float }, ptr %5, i32 0, i32 1
  store float %1, ptr %9, align 4
  call void @llvm.memcpy.p0.p0.i64(ptr align 4 %4, ptr align 4 %5, i64 12, i1 false)
  %10 = getelementptr inbounds nuw %struct.NcYuvPrime, ptr %4, i32 0, i32 1
  %11 = load float, ptr %10, align 4
  %12 = getelementptr inbounds nuw %struct.NcYuvPrime, ptr %4, i32 0, i32 2
  %13 = load float, ptr %12, align 4
  %14 = fmul float 1.600000e+01, %13
  %15 = fneg float %14
  %16 = call float @llvm.fmuladd.f32(float 6.000000e+00, float %11, float %15)
  %17 = fadd float %16, 1.200000e+01
  store float %17, ptr %6, align 4
  %18 = getelementptr inbounds nuw %struct.pxr_nc_1_0_Yxy, ptr %3, i32 0, i32 0
  %19 = getelementptr inbounds nuw %struct.NcYuvPrime, ptr %4, i32 0, i32 0
  %20 = load float, ptr %19, align 4
  store float %20, ptr %18, align 4
  %21 = getelementptr inbounds nuw %struct.pxr_nc_1_0_Yxy, ptr %3, i32 0, i32 1
  %22 = getelementptr inbounds nuw %struct.NcYuvPrime, ptr %4, i32 0, i32 1
  %23 = load float, ptr %22, align 4
  %24 = fmul float 9.000000e+00, %23
  %25 = load float, ptr %6, align 4
  %26 = fdiv float %24, %25
  store float %26, ptr %21, align 4
  %27 = getelementptr inbounds nuw %struct.pxr_nc_1_0_Yxy, ptr %3, i32 0, i32 2
  %28 = getelementptr inbounds nuw %struct.NcYuvPrime, ptr %4, i32 0, i32 2
  %29 = load float, ptr %28, align 4
  %30 = fmul float 4.000000e+00, %29
  %31 = load float, ptr %6, align 4
  %32 = fdiv float %30, %31
  store float %32, ptr %27, align 4
  call void @llvm.memcpy.p0.p0.i64(ptr align 8 %7, ptr align 4 %3, i64 12, i1 false)
  %33 = load { <2 x float>, float }, ptr %7, align 8
  ret { <2 x float>, float } %33
}