; Function Attrs: mustprogress nofree norecurse nosync nounwind willreturn memory(none) uwtable
define { <2 x float>, float } @_NcYuv2Yxy(<2 x float> %0, float %1) local_unnamed_addr #13 {
  %.sroa.04.4.vec.extract = extractelement <2 x float> %0, i64 1
  %3 = fmul float %1, -1.600000e+01
  %4 = tail call float @llvm.fmuladd.f32(float %.sroa.04.4.vec.extract, float 6.000000e+00, float %3)
  %5 = fadd float %4, 1.200000e+01
  %6 = fmul float %.sroa.04.4.vec.extract, 9.000000e+00
  %7 = fdiv float %6, %5
  %.sroa.08.4.vec.insert = insertelement <2 x float> %0, float %7, i64 1
  %8 = fmul float %1, 4.000000e+00
  %9 = fdiv float %8, %5
  %.fca.0.insert = insertvalue { <2 x float>, float } poison, <2 x float> %.sroa.08.4.vec.insert, 0
  %.fca.1.insert = insertvalue { <2 x float>, float } %.fca.0.insert, float %9, 1
  ret { <2 x float>, float } %.fca.1.insert
}